target datalayout = "e-m:e-p270:32:32-p271:32:32-p272:64:64-i64:64-i128:128-f80:128-n8:16:32:64-S128"
target triple = "x86_64-pc-linux-gnu"

%"class.std::__cxx11::basic_string" = type { %"struct.std::__cxx11::basic_string<char>::_Alloc_hider", i64, %union.anon }
%"struct.std::__cxx11::basic_string<char>::_Alloc_hider" = type { ptr }
%union.anon = type { i64, [8 x i8] }
%"struct.std::__detail::_List_node_header" = type { %"struct.std::__detail::_List_node_base", i64 }
%"struct.std::__detail::_List_node_base" = type { ptr, ptr }
%"struct.std::_Rb_tree_key_compare" = type { %"struct.std::less" }
%"struct.std::less" = type { i8 }
%"struct.std::_Rb_tree_header" = type { %"struct.std::_Rb_tree_node_base", i64 }
%"struct.std::_Rb_tree_node_base" = type { i32, ptr, ptr, ptr }
%"class.glslang::TProgram" = type <{ ptr, ptr, [14 x %"class.std::__cxx11::list.104"], [14 x ptr], [14 x i8], [2 x i8], ptr, ptr, i8, [7 x i8] }>
%"class.std::__cxx11::list.104" = type { %"class.std::__cxx11::_List_base.105" }
%"class.std::__cxx11::_List_base.105" = type { %"struct.std::__cxx11::_List_base<glslang::TShader *, std::allocator<glslang::TShader *>>::_List_impl" }
%"struct.std::__cxx11::_List_base<glslang::TShader *, std::allocator<glslang::TShader *>>::_List_impl" = type { %"struct.std::__detail::_List_node_header" }
%"class.glslang::TObjectReflection" = type { %"class.std::__cxx11::basic_string", i32, i32, i32, i32, i32, i32, i32, i32, i32, i32, ptr }
%"class.glslang::TReflection" = type <{ ptr, i32, i32, i32, [4 x i8], %"class.glslang::TObjectReflection", %"class.std::map.109", %"class.std::map.109", %"class.std::map.109", %"class.std::vector.114", %"class.std::vector.114", %"class.std::vector.114", %"class.std::vector.114", %"class.std::vector.114", %"class.std::vector.114", %"class.std::vector.119", [3 x i32], [4 x i8] }>
%"class.std::map.109" = type { %"class.std::_Rb_tree.110" }
%"class.std::_Rb_tree.110" = type { %"struct.std::_Rb_tree<std::__cxx11::basic_string<char>, std::pair<const std::__cxx11::basic_string<char>, int>, std::_Select1st<std::pair<const std::__cxx11::basic_string<char>, int>>, std::less<std::__cxx11::basic_string<char>>>::_Rb_tree_impl" }
%"struct.std::_Rb_tree<std::__cxx11::basic_string<char>, std::pair<const std::__cxx11::basic_string<char>, int>, std::_Select1st<std::pair<const std::__cxx11::basic_string<char>, int>>, std::less<std::__cxx11::basic_string<char>>>::_Rb_tree_impl" = type { %"struct.std::_Rb_tree_key_compare", %"struct.std::_Rb_tree_header" }
%"class.std::vector.114" = type { %"struct.std::_Vector_base.115" }
%"struct.std::_Vector_base.115" = type { %"struct.std::_Vector_base<glslang::TObjectReflection, std::allocator<glslang::TObjectReflection>>::_Vector_impl" }
%"struct.std::_Vector_base<glslang::TObjectReflection, std::allocator<glslang::TObjectReflection>>::_Vector_impl" = type { %"struct.std::_Vector_base<glslang::TObjectReflection, std::allocator<glslang::TObjectReflection>>::_Vector_impl_data" }
%"struct.std::_Vector_base<glslang::TObjectReflection, std::allocator<glslang::TObjectReflection>>::_Vector_impl_data" = type { ptr, ptr, ptr }
%"class.std::vector.119" = type { %"struct.std::_Vector_base.120" }
%"struct.std::_Vector_base.120" = type { %"struct.std::_Vector_base<int, std::allocator<int>>::_Vector_impl" }
%"struct.std::_Vector_base<int, std::allocator<int>>::_Vector_impl" = type { %"struct.std::_Vector_base<int, std::allocator<int>>::_Vector_impl_data" }
%"struct.std::_Vector_base<int, std::allocator<int>>::_Vector_impl_data" = type { ptr, ptr, ptr }

; Function Attrs: mustprogress nounwind uwtable
define linkonce_odr noundef i64 @_ZNKSt6vectorIiSaIiEE4sizeEv(ptr noundef nonnull align 8 dereferenceable(24) %0) #4 comdat align 2 {
  %2 = alloca ptr, align 8
  store ptr %0, ptr %2, align 8
  %3 = load ptr, ptr %2, align 8
  %4 = getelementptr inbounds %"struct.std::_Vector_base.120", ptr %3, i32 0, i32 0
  %5 = getelementptr inbounds %"struct.std::_Vector_base<int, std::allocator<int>>::_Vector_impl_data", ptr %4, i32 0, i32 1
  %6 = load ptr, ptr %5, align 8
  %7 = getelementptr inbounds %"struct.std::_Vector_base.120", ptr %3, i32 0, i32 0
  %8 = getelementptr inbounds %"struct.std::_Vector_base<int, std::allocator<int>>::_Vector_impl_data", ptr %7, i32 0, i32 0
  %9 = load ptr, ptr %8, align 8
  %10 = ptrtoint ptr %6 to i64
  %11 = ptrtoint ptr %9 to i64
  %12 = sub i64 %10, %11
  %13 = sdiv exact i64 %12, 4
  ret i64 %13
}

; Function Attrs: mustprogress nounwind uwtable
define linkonce_odr noundef i32 @_ZNK7glslang11TReflection20getNumAtomicCountersEv(ptr noundef nonnull align 8 dereferenceable(428) %0) #4 comdat align 2 {
  %2 = alloca ptr, align 8
  store ptr %0, ptr %2, align 8
  %3 = load ptr, ptr %2, align 8
  %4 = getelementptr inbounds %"class.glslang::TReflection", ptr %3, i32 0, i32 15
  %5 = call noundef i64 @_ZNKSt6vectorIiSaIiEE4sizeEv(ptr noundef nonnull align 8 dereferenceable(24) %4) #3
  %6 = trunc i64 %5 to i32
  ret i32 %6
}

; Function Attrs: mustprogress nounwind uwtable
define noundef i32 @_ZNK7glslang8TProgram20getNumAtomicCountersEv(ptr noundef nonnull align 8 dereferenceable(497) %0) #4 align 2 {
  %2 = alloca ptr, align 8
  store ptr %0, ptr %2, align 8
  %3 = load ptr, ptr %2, align 8
  %4 = getelementptr inbounds %"class.glslang::TProgram", ptr %3, i32 0, i32 7
  %5 = load ptr, ptr %4, align 8
  %6 = call noundef i32 @_ZNK7glslang11TReflection20getNumAtomicCountersEv(ptr noundef nonnull align 8 dereferenceable(428) %5)
  ret i32 %6
}